; ModuleID = '7/254.c'
source_filename = "7/254.c"
target datalayout = "e-m:e-p270:32:32-p271:32:32-p272:64:64-i64:64-f80:128-n8:16:32:64-S128"
target triple = "x86_64-pc-linux-gnu"

@.str = private unnamed_addr constant [4 x i8] c"%s\0A\00", align 1

; Function Attrs: noinline nounwind uwtable
define dso_local i32 @main() #0 {
  %1 = alloca i32, align 4
  %2 = alloca [256 x i8], align 16
  %3 = alloca [256 x i8], align 16
  %4 = alloca [256 x i8], align 16
  %5 = alloca i8*, align 8
  %6 = alloca i32, align 4
  %7 = alloca i32, align 4
  store i32 0, i32* %1, align 4
  %8 = getelementptr inbounds [256 x i8], [256 x i8]* %2, i64 0, i64 0
  %9 = call i32 (i8*, ...) bitcast (i32 (...)* @gets to i32 (i8*, ...)*)(i8* %8)
  %10 = getelementptr inbounds [256 x i8], [256 x i8]* %3, i64 0, i64 0
  %11 = call i32 (i8*, ...) bitcast (i32 (...)* @gets to i32 (i8*, ...)*)(i8* %10)
  %12 = getelementptr inbounds [256 x i8], [256 x i8]* %4, i64 0, i64 0
  %13 = call i32 (i8*, ...) bitcast (i32 (...)* @gets to i32 (i8*, ...)*)(i8* %12)
  %14 = getelementptr inbounds [256 x i8], [256 x i8]* %2, i64 0, i64 0
  %15 = getelementptr inbounds [256 x i8], [256 x i8]* %3, i64 0, i64 0
  %16 = call i8* @strstr(i8* %14, i8* %15) #3
  store i8* %16, i8** %5, align 8
  %17 = load i8*, i8** %5, align 8
  %18 = icmp eq i8* %17, null
  br i1 %18, label %19, label %22

19:                                               ; preds = %0
  %20 = getelementptr inbounds [256 x i8], [256 x i8]* %2, i64 0, i64 0
  %21 = call i32 (i8*, ...) @printf(i8* getelementptr inbounds ([4 x i8], [4 x i8]* @.str, i64 0, i64 0), i8* %20)
  br label %44

22:                                               ; preds = %0
  %23 = getelementptr inbounds [256 x i8], [256 x i8]* %4, i64 0, i64 0
  %24 = call i64 @strlen(i8* %23) #3
  %25 = trunc i64 %24 to i32
  store i32 %25, i32* %6, align 4
  store i32 0, i32* %7, align 4
  br label %26

26:                                               ; preds = %38, %22
  %27 = load i32, i32* %7, align 4
  %28 = load i32, i32* %6, align 4
  %29 = icmp slt i32 %27, %28
  br i1 %29, label %30, label %41

30:                                               ; preds = %26
  %31 = load i32, i32* %7, align 4
  %32 = sext i32 %31 to i64
  %33 = getelementptr inbounds [256 x i8], [256 x i8]* %4, i64 0, i64 %32
  %34 = load i8, i8* %33, align 1
  %35 = load i8*, i8** %5, align 8
  store i8 %34, i8* %35, align 1
  %36 = load i8*, i8** %5, align 8
  %37 = getelementptr inbounds i8, i8* %36, i32 1
  store i8* %37, i8** %5, align 8
  br label %38

38:                                               ; preds = %30
  %39 = load i32, i32* %7, align 4
  %40 = add nsw i32 %39, 1
  store i32 %40, i32* %7, align 4
  br label %26

41:                                               ; preds = %26
  %42 = getelementptr inbounds [256 x i8], [256 x i8]* %2, i64 0, i64 0
  %43 = call i32 (i8*, ...) @printf(i8* getelementptr inbounds ([4 x i8], [4 x i8]* @.str, i64 0, i64 0), i8* %42)
  br label %44

44:                                               ; preds = %41, %19
  ret i32 0
}

declare dso_local i32 @gets(...) #1

; Function Attrs: nounwind readonly
declare dso_local i8* @strstr(i8*, i8*) #2

declare dso_local i32 @printf(i8*, ...) #1

; Function Attrs: nounwind readonly
declare dso_local i64 @strlen(i8*) #2


!llvm.module.flags = !{!0}
!llvm.ident = !{!1}

!0 = !{i32 1, !"wchar_size", i32 4}
!1 = !{!"clang version 10.0.0-4ubuntu1 "}
